; ModuleID = '24/2518.c'
source_filename = "24/2518.c"
target datalayout = "e-m:e-p270:32:32-p271:32:32-p272:64:64-i64:64-f80:128-n8:16:32:64-S128"
target triple = "x86_64-pc-linux-gnu"

@.str = private unnamed_addr constant [6 x i8] c"%s\0A%s\00", align 1

; Function Attrs: noinline nounwind uwtable
define dso_local i32 @main() #0 {
  %1 = alloca i32, align 4
  %2 = alloca [500 x i8], align 16
  %3 = alloca [100 x [15 x i8]], align 16
  %4 = alloca [100 x i32], align 16
  %5 = alloca i32, align 4
  %6 = alloca i32, align 4
  %7 = alloca i32, align 4
  %8 = alloca i32, align 4
  %9 = alloca i32, align 4
  %10 = alloca i32, align 4
  %11 = alloca i32, align 4
  store i32 0, i32* %1, align 4
  %12 = bitcast [100 x [15 x i8]]* %3 to i8*
  call void @llvm.memset.p0i8.i64(i8* align 16 %12, i8 0, i64 1500, i1 false)
  %13 = bitcast [100 x i32]* %4 to i8*
  call void @llvm.memset.p0i8.i64(i8* align 16 %13, i8 0, i64 400, i1 false)
  store i32 0, i32* %5, align 4
  store i32 0, i32* %6, align 4
  store i32 0, i32* %7, align 4
  %14 = getelementptr inbounds [500 x i8], [500 x i8]* %2, i64 0, i64 0
  %15 = call i32 (i8*, ...) bitcast (i32 (...)* @gets to i32 (i8*, ...)*)(i8* %14)
  store i32 0, i32* %10, align 4
  store i32 0, i32* %11, align 4
  br label %16

16:                                               ; preds = %70, %0
  %17 = load i32, i32* %5, align 4
  %18 = sext i32 %17 to i64
  %19 = getelementptr inbounds [500 x i8], [500 x i8]* %2, i64 0, i64 0
  %20 = call i64 @strlen(i8* %19) #4
  %21 = icmp ult i64 %18, %20
  br i1 %21, label %22, label %73

22:                                               ; preds = %16
  br label %23

23:                                               ; preds = %46, %22
  %24 = load i32, i32* %5, align 4
  %25 = sext i32 %24 to i64
  %26 = getelementptr inbounds [500 x i8], [500 x i8]* %2, i64 0, i64 %25
  %27 = load i8, i8* %26, align 1
  %28 = sext i8 %27 to i32
  %29 = icmp ne i32 %28, 32
  br i1 %29, label %30, label %44

30:                                               ; preds = %23
  %31 = load i32, i32* %5, align 4
  %32 = sext i32 %31 to i64
  %33 = getelementptr inbounds [500 x i8], [500 x i8]* %2, i64 0, i64 %32
  %34 = load i8, i8* %33, align 1
  %35 = sext i8 %34 to i32
  %36 = icmp ne i32 %35, 44
  br i1 %36, label %37, label %44

37:                                               ; preds = %30
  %38 = load i32, i32* %5, align 4
  %39 = sext i32 %38 to i64
  %40 = getelementptr inbounds [500 x i8], [500 x i8]* %2, i64 0, i64 %39
  %41 = load i8, i8* %40, align 1
  %42 = sext i8 %41 to i32
  %43 = icmp ne i32 %42, 0
  br label %44

44:                                               ; preds = %37, %30, %23
  %45 = phi i1 [ false, %30 ], [ false, %23 ], [ %43, %37 ]
  br i1 %45, label %46, label %64

46:                                               ; preds = %44
  %47 = load i32, i32* %5, align 4
  %48 = add nsw i32 %47, 1
  store i32 %48, i32* %5, align 4
  %49 = sext i32 %47 to i64
  %50 = getelementptr inbounds [500 x i8], [500 x i8]* %2, i64 0, i64 %49
  %51 = load i8, i8* %50, align 1
  %52 = load i32, i32* %6, align 4
  %53 = sext i32 %52 to i64
  %54 = getelementptr inbounds [100 x [15 x i8]], [100 x [15 x i8]]* %3, i64 0, i64 %53
  %55 = load i32, i32* %7, align 4
  %56 = add nsw i32 %55, 1
  store i32 %56, i32* %7, align 4
  %57 = sext i32 %55 to i64
  %58 = getelementptr inbounds [15 x i8], [15 x i8]* %54, i64 0, i64 %57
  store i8 %51, i8* %58, align 1
  %59 = load i32, i32* %6, align 4
  %60 = sext i32 %59 to i64
  %61 = getelementptr inbounds [100 x i32], [100 x i32]* %4, i64 0, i64 %60
  %62 = load i32, i32* %61, align 4
  %63 = add nsw i32 %62, 1
  store i32 %63, i32* %61, align 4
  br label %23

64:                                               ; preds = %44
  %65 = load i32, i32* %7, align 4
  %66 = icmp ne i32 %65, 0
  br i1 %66, label %67, label %70

67:                                               ; preds = %64
  %68 = load i32, i32* %6, align 4
  %69 = add nsw i32 %68, 1
  store i32 %69, i32* %6, align 4
  store i32 0, i32* %7, align 4
  br label %70

70:                                               ; preds = %67, %64
  %71 = load i32, i32* %5, align 4
  %72 = add nsw i32 %71, 1
  store i32 %72, i32* %5, align 4
  br label %16

73:                                               ; preds = %16
  %74 = getelementptr inbounds [100 x i32], [100 x i32]* %4, i64 0, i64 0
  %75 = load i32, i32* %74, align 16
  store i32 %75, i32* %8, align 4
  store i32 1, i32* %5, align 4
  br label %76

76:                                               ; preds = %94, %73
  %77 = load i32, i32* %5, align 4
  %78 = load i32, i32* %6, align 4
  %79 = icmp slt i32 %77, %78
  br i1 %79, label %80, label %97

80:                                               ; preds = %76
  %81 = load i32, i32* %5, align 4
  %82 = sext i32 %81 to i64
  %83 = getelementptr inbounds [100 x i32], [100 x i32]* %4, i64 0, i64 %82
  %84 = load i32, i32* %83, align 4
  %85 = load i32, i32* %8, align 4
  %86 = icmp sgt i32 %84, %85
  br i1 %86, label %87, label %93

87:                                               ; preds = %80
  %88 = load i32, i32* %5, align 4
  %89 = sext i32 %88 to i64
  %90 = getelementptr inbounds [100 x i32], [100 x i32]* %4, i64 0, i64 %89
  %91 = load i32, i32* %90, align 4
  store i32 %91, i32* %8, align 4
  %92 = load i32, i32* %5, align 4
  store i32 %92, i32* %10, align 4
  br label %93

93:                                               ; preds = %87, %80
  br label %94

94:                                               ; preds = %93
  %95 = load i32, i32* %5, align 4
  %96 = add nsw i32 %95, 1
  store i32 %96, i32* %5, align 4
  br label %76

97:                                               ; preds = %76
  %98 = getelementptr inbounds [100 x i32], [100 x i32]* %4, i64 0, i64 0
  %99 = load i32, i32* %98, align 16
  store i32 %99, i32* %9, align 4
  store i32 1, i32* %5, align 4
  br label %100

100:                                              ; preds = %118, %97
  %101 = load i32, i32* %5, align 4
  %102 = load i32, i32* %6, align 4
  %103 = icmp slt i32 %101, %102
  br i1 %103, label %104, label %121

104:                                              ; preds = %100
  %105 = load i32, i32* %5, align 4
  %106 = sext i32 %105 to i64
  %107 = getelementptr inbounds [100 x i32], [100 x i32]* %4, i64 0, i64 %106
  %108 = load i32, i32* %107, align 4
  %109 = load i32, i32* %9, align 4
  %110 = icmp slt i32 %108, %109
  br i1 %110, label %111, label %117

111:                                              ; preds = %104
  %112 = load i32, i32* %5, align 4
  %113 = sext i32 %112 to i64
  %114 = getelementptr inbounds [100 x i32], [100 x i32]* %4, i64 0, i64 %113
  %115 = load i32, i32* %114, align 4
  store i32 %115, i32* %9, align 4
  %116 = load i32, i32* %5, align 4
  store i32 %116, i32* %11, align 4
  br label %117

117:                                              ; preds = %111, %104
  br label %118

118:                                              ; preds = %117
  %119 = load i32, i32* %5, align 4
  %120 = add nsw i32 %119, 1
  store i32 %120, i32* %5, align 4
  br label %100

121:                                              ; preds = %100
  %122 = load i32, i32* %10, align 4
  %123 = sext i32 %122 to i64
  %124 = getelementptr inbounds [100 x [15 x i8]], [100 x [15 x i8]]* %3, i64 0, i64 %123
  %125 = getelementptr inbounds [15 x i8], [15 x i8]* %124, i64 0, i64 0
  %126 = load i32, i32* %11, align 4
  %127 = sext i32 %126 to i64
  %128 = getelementptr inbounds [100 x [15 x i8]], [100 x [15 x i8]]* %3, i64 0, i64 %127
  %129 = getelementptr inbounds [15 x i8], [15 x i8]* %128, i64 0, i64 0
  %130 = call i32 (i8*, ...) @printf(i8* getelementptr inbounds ([6 x i8], [6 x i8]* @.str, i64 0, i64 0), i8* %125, i8* %129)
  ret i32 0
}

; Function Attrs: argmemonly nounwind willreturn
declare void @llvm.memset.p0i8.i64(i8* nocapture writeonly, i8, i64, i1 immarg) #1

declare dso_local i32 @gets(...) #2

; Function Attrs: nounwind readonly
declare dso_local i64 @strlen(i8*) #3

declare dso_local i32 @printf(i8*, ...) #2


!llvm.module.flags = !{!0}
!llvm.ident = !{!1}

!0 = !{i32 1, !"wchar_size", i32 4}
!1 = !{!"clang version 10.0.0-4ubuntu1 "}
